#include <math.h>
#include <stdio.h>
#include <stdlib.h>
#include <string.h>

int main()
{
   char str[300][10],c;
   int num[300],n,i;
   scanf("%s",str[0]);
   num[0]=strlen(str[0]);
   for(i=1;c=getchar()!='\n';i++)
   {
      scanf("%s",str[i]);
      num[i]=strlen(str[i]);
    }
    n=i;
    printf("%d",num[0]);
    for(i=1;i<n;i++)
    {
      printf(",%d",num[i]);
     }
}
